target datalayout = "e-m:e-p270:32:32-p271:32:32-p272:64:64-i64:64-i128:128-f80:128-n8:16:32:64-S128"
target triple = "x86_64-pc-linux-gnu"

%struct.nstime_t = type { i64 }
%struct.atomic_p_t = type { ptr }
%struct.edata_s = type { i64, ptr, %union.anon.10, ptr, i64, %union.anon.11, %union.anon.14 }
%union.anon.10 = type { i64 }
%union.anon.11 = type { %union.anon.13 }
%union.anon.13 = type { %struct.edata_heap_link_t }
%struct.edata_heap_link_t = type { %struct.phn_link_s }
%struct.phn_link_s = type { ptr, ptr, ptr }
%union.anon.14 = type { %struct.slab_data_s }
%struct.slab_data_s = type { [8 x i64] }
%struct.e_prof_info_s = type { %struct.nstime_t, i64, %struct.atomic_p_t, %struct.atomic_p_t }

; Function Attrs: alwaysinline nounwind uwtable
define internal i32 @atomic_enum_to_builtin(i32 noundef %0) #2 {
  %2 = alloca i32, align 4
  %3 = alloca i32, align 4
  store i32 %0, ptr %3, align 4, !tbaa !21
  %4 = load i32, ptr %3, align 4, !tbaa !21
  switch i32 %4, label %10 [
    i32 0, label %5
    i32 1, label %6
    i32 2, label %7
    i32 3, label %8
    i32 4, label %9
  ]

5:                                                ; preds = %1
  store i32 0, ptr %2, align 4
  br label %12

6:                                                ; preds = %1
  store i32 2, ptr %2, align 4
  br label %12

7:                                                ; preds = %1
  store i32 3, ptr %2, align 4
  br label %12

8:                                                ; preds = %1
  store i32 4, ptr %2, align 4
  br label %12

9:                                                ; preds = %1
  store i32 5, ptr %2, align 4
  br label %12

10:                                               ; preds = %1
  br label %11

11:                                               ; preds = %10
  unreachable

12:                                               ; preds = %5, %6, %7, %8, %9
  %13 = load i32, ptr %2, align 4
  ret i32 %13
}

; Function Attrs: alwaysinline nounwind uwtable
define internal void @atomic_store_p(ptr noundef %0, ptr noundef %1, i32 noundef %2) #2 {
  %4 = alloca ptr, align 8
  %5 = alloca ptr, align 8
  %6 = alloca i32, align 4
  store ptr %0, ptr %4, align 8, !tbaa !25
  store ptr %1, ptr %5, align 8, !tbaa !25
  store i32 %2, ptr %6, align 4, !tbaa !21
  %7 = load ptr, ptr %4, align 8, !tbaa !25
  %8 = getelementptr inbounds nuw %struct.atomic_p_t, ptr %7, i32 0, i32 0
  %9 = load i32, ptr %6, align 4, !tbaa !21
  %10 = call i32 @atomic_enum_to_builtin(i32 noundef %9)
  switch i32 %10, label %11 [
    i32 3, label %13
    i32 5, label %15
  ]

11:                                               ; preds = %3
  %12 = load i64, ptr %5, align 8
  store atomic i64 %12, ptr %8 monotonic, align 8
  br label %17

13:                                               ; preds = %3
  %14 = load i64, ptr %5, align 8
  store atomic i64 %14, ptr %8 release, align 8
  br label %17

15:                                               ; preds = %3
  %16 = load i64, ptr %5, align 8
  store atomic i64 %16, ptr %8 seq_cst, align 8
  br label %17

17:                                               ; preds = %15, %13, %11
  ret void
}

; Function Attrs: inlinehint nounwind uwtable
define internal void @edata_prof_tctx_set(ptr noundef %0, ptr noundef %1) #5 {
  %3 = alloca ptr, align 8
  %4 = alloca ptr, align 8
  store ptr %0, ptr %3, align 8, !tbaa !17
  store ptr %1, ptr %4, align 8, !tbaa !52
  %5 = load ptr, ptr %3, align 8, !tbaa !17
  %6 = getelementptr inbounds nuw %struct.edata_s, ptr %5, i32 0, i32 6
  %7 = getelementptr inbounds nuw %struct.e_prof_info_s, ptr %6, i32 0, i32 2
  %8 = load ptr, ptr %4, align 8, !tbaa !52
  call void @atomic_store_p(ptr noundef %7, ptr noundef %8, i32 noundef 2)
  ret void
}

; Function Attrs: nounwind uwtable
define internal void @large_prof_tctx_set(ptr noundef %0, ptr noundef %1) #0 {
  %3 = alloca ptr, align 8
  %4 = alloca ptr, align 8
  store ptr %0, ptr %3, align 8, !tbaa !17
  store ptr %1, ptr %4, align 8, !tbaa !52
  %5 = load ptr, ptr %3, align 8, !tbaa !17
  %6 = load ptr, ptr %4, align 8, !tbaa !52
  call void @edata_prof_tctx_set(ptr noundef %5, ptr noundef %6)
  ret void
}

; Function Attrs: inlinehint nounwind uwtable
define internal void @edata_prof_alloc_size_set(ptr noundef %0, i64 noundef %1) #5 {
  %3 = alloca ptr, align 8
  %4 = alloca i64, align 8
  store ptr %0, ptr %3, align 8, !tbaa !17
  store i64 %1, ptr %4, align 8, !tbaa !11
  %5 = load i64, ptr %4, align 8, !tbaa !11
  %6 = load ptr, ptr %3, align 8, !tbaa !17
  %7 = getelementptr inbounds nuw %struct.edata_s, ptr %6, i32 0, i32 6
  %8 = getelementptr inbounds nuw %struct.e_prof_info_s, ptr %7, i32 0, i32 1
  store i64 %5, ptr %8, align 8, !tbaa !26
  ret void
}

; Function Attrs: inlinehint nounwind uwtable
define internal void @edata_prof_alloc_time_set(ptr noundef %0, ptr noundef %1) #5 {
  %3 = alloca ptr, align 8
  %4 = alloca ptr, align 8
  store ptr %0, ptr %3, align 8, !tbaa !17
  store ptr %1, ptr %4, align 8, !tbaa !25
  %5 = load ptr, ptr %3, align 8, !tbaa !17
  %6 = getelementptr inbounds nuw %struct.edata_s, ptr %5, i32 0, i32 6
  %7 = getelementptr inbounds nuw %struct.e_prof_info_s, ptr %6, i32 0, i32 0
  %8 = load ptr, ptr %4, align 8, !tbaa !25
  call void @je_nstime_copy(ptr noundef %7, ptr noundef %8)
  ret void
}

; Function Attrs: nounwind uwtable
define hidden void @je_large_prof_info_set(ptr noundef %0, ptr noundef %1, i64 noundef %2) #0 {
  %4 = alloca ptr, align 8
  %5 = alloca ptr, align 8
  %6 = alloca i64, align 8
  %7 = alloca %struct.nstime_t, align 8
  store ptr %0, ptr %4, align 8, !tbaa !17
  store ptr %1, ptr %5, align 8, !tbaa !52
  store i64 %2, ptr %6, align 8, !tbaa !11
  call void @llvm.lifetime.start.p0(i64 8, ptr %7) #11
  call void @je_nstime_prof_init_update(ptr noundef %7)
  %8 = load ptr, ptr %4, align 8, !tbaa !17
  call void @edata_prof_alloc_time_set(ptr noundef %8, ptr noundef %7)
  %9 = load ptr, ptr %4, align 8, !tbaa !17
  %10 = load i64, ptr %6, align 8, !tbaa !11
  call void @edata_prof_alloc_size_set(ptr noundef %9, i64 noundef %10)
  %11 = load ptr, ptr %4, align 8, !tbaa !17
  call void @je_edata_prof_recent_alloc_init(ptr noundef %11)
  %12 = load ptr, ptr %4, align 8, !tbaa !17
  %13 = load ptr, ptr %5, align 8, !tbaa !52
  call void @large_prof_tctx_set(ptr noundef %12, ptr noundef %13)
  call void @llvm.lifetime.end.p0(i64 8, ptr %7) #11
  ret void
}