; Function Attrs: nounwind uwtable
define hidden void @je_large_prof_info_set(ptr noundef %0, ptr noundef %1, i64 noundef %2) local_unnamed_addr #0 {
  %4 = alloca %struct.nstime_t, align 8
  call void @llvm.lifetime.start.p0(i64 8, ptr nonnull %4) #11
  call void @je_nstime_prof_init_update(ptr noundef nonnull %4) #11
  %5 = getelementptr inbounds nuw i8, ptr %0, i64 64
  call void @je_nstime_copy(ptr noundef nonnull %5, ptr noundef nonnull %4) #11
  %6 = getelementptr inbounds nuw i8, ptr %0, i64 72
  store i64 %2, ptr %6, align 8, !tbaa !5
  call void @je_edata_prof_recent_alloc_init(ptr noundef %0) #11
  %7 = getelementptr inbounds nuw i8, ptr %0, i64 80
  %8 = ptrtoint ptr %1 to i64
  store atomic i64 %8, ptr %7 release, align 8
  call void @llvm.lifetime.end.p0(i64 8, ptr nonnull %4) #11
  ret void
}